; Function Attrs: mustprogress nofree norecurse nosync nounwind willreturn memory(argmem: read) uwtable
define dso_local { i64, ptr } @_ZN4absl23FindLongestCommonSuffixESt17basic_string_viewIcSt11char_traitsIcEES3_(i64 %0, ptr %1, i64 %2, ptr readonly captures(none) %3) local_unnamed_addr #6 {
  %.sroa.speculated = tail call i64 @llvm.umin.i64(i64 %2, i64 %0)
  %5 = icmp eq i64 %.sroa.speculated, 0
  br i1 %5, label %.critedge, label %6

6:                                                ; preds = %4
  %7 = getelementptr inbounds nuw i8, ptr %1, i64 %0
  %8 = getelementptr inbounds nuw i8, ptr %3, i64 %2
  %9 = sub i64 %0, %.sroa.speculated
  %scevgep = getelementptr i8, ptr %1, i64 %9
  br label %10

10:                                               ; preds = %6, %14
  %.pn = phi ptr [ %8, %6 ], [ %.0926, %14 ]
  %.025 = phi i64 [ 0, %6 ], [ %15, %14 ]
  %.pn24 = phi ptr [ %7, %6 ], [ %.01027, %14 ]
  %.0926 = getelementptr inbounds i8, ptr %.pn, i64 -1
  %.01027 = getelementptr inbounds i8, ptr %.pn24, i64 -1
  %11 = load i8, ptr %.01027, align 1, !tbaa !6
  %12 = load i8, ptr %.0926, align 1, !tbaa !6
  %13 = icmp eq i8 %11, %12
  br i1 %13, label %14, label %.critedge

14:                                               ; preds = %10
  %15 = add nuw i64 %.025, 1
  %exitcond.not = icmp eq i64 %15, %.sroa.speculated
  br i1 %exitcond.not, label %.critedge, label %10, !llvm.loop !13

.critedge:                                        ; preds = %10, %14, %4
  %.sroa.321.0 = phi ptr [ null, %4 ], [ %scevgep, %14 ], [ %.pn24, %10 ]
  %.sroa.020.0 = phi i64 [ 0, %4 ], [ %.sroa.speculated, %14 ], [ %.025, %10 ]
  %.fca.0.insert = insertvalue { i64, ptr } poison, i64 %.sroa.020.0, 0
  %.fca.1.insert = insertvalue { i64, ptr } %.fca.0.insert, ptr %.sroa.321.0, 1
  ret { i64, ptr } %.fca.1.insert
}